; Function Attrs: mustprogress nofree norecurse nosync nounwind willreturn memory(read, inaccessiblemem: none) uwtable
define hidden noundef zeroext i1 @_ZNK4cvc58internal6theory5arith6linear10Constraint20safeToGarbageCollectEv(ptr nocapture noundef nonnull readonly align 8 dereferenceable(145) %this) local_unnamed_addr #9 align 2 {
entry:
  %d_crid.i.i = getelementptr inbounds i8, ptr %this, i64 120
  %0 = load i64, ptr %d_crid.i.i, align 8
  %cmp.i.not.i = icmp eq i64 %0, -1
  br i1 %cmp.i.not.i, label %lor.lhs.false.i, label %land.end

lor.lhs.false.i:                                  ; preds = %entry
  %d_split.i.i = getelementptr inbounds i8, ptr %this, i64 128
  %1 = load i8, ptr %d_split.i.i, align 8
  %2 = and i8 %1, 1
  %tobool.i.not.i = icmp eq i8 %2, 0
  br i1 %tobool.i.not.i, label %lor.lhs.false3.i, label %land.end

lor.lhs.false3.i:                                 ; preds = %lor.lhs.false.i
  %d_canBePropagated.i.i = getelementptr inbounds i8, ptr %this, i64 96
  %3 = load i8, ptr %d_canBePropagated.i.i, align 8
  %4 = and i8 %3, 1
  %tobool.i1.not.i = icmp ne i8 %4, 0
  %d_assertionOrder.i.i = getelementptr inbounds i8, ptr %this, i64 104
  %5 = load i64, ptr %d_assertionOrder.i.i, align 8
  %cmp.i2.i = icmp ne i64 %5, -1
  %or.cond = select i1 %tobool.i1.not.i, i1 true, i1 %cmp.i2.i
  br i1 %or.cond, label %land.end, label %land.rhs

land.rhs:                                         ; preds = %lor.lhs.false3.i
  %d_negation.i = getelementptr inbounds i8, ptr %this, i64 88
  %6 = load ptr, ptr %d_negation.i, align 8
  %d_crid.i.i1 = getelementptr inbounds i8, ptr %6, i64 120
  %7 = load i64, ptr %d_crid.i.i1, align 8
  %cmp.i.not.i2 = icmp eq i64 %7, -1
  br i1 %cmp.i.not.i2, label %lor.lhs.false.i3, label %land.end

lor.lhs.false.i3:                                 ; preds = %land.rhs
  %d_split.i.i4 = getelementptr inbounds i8, ptr %6, i64 128
  %8 = load i8, ptr %d_split.i.i4, align 8
  %9 = and i8 %8, 1
  %tobool.i.not.i5 = icmp eq i8 %9, 0
  br i1 %tobool.i.not.i5, label %lor.lhs.false3.i6, label %land.end

lor.lhs.false3.i6:                                ; preds = %lor.lhs.false.i3
  %d_canBePropagated.i.i7 = getelementptr inbounds i8, ptr %6, i64 96
  %10 = load i8, ptr %d_canBePropagated.i.i7, align 8
  %11 = and i8 %10, 1
  %tobool.i1.not.i8 = icmp eq i8 %11, 0
  br i1 %tobool.i1.not.i8, label %lor.rhs.i9, label %land.end

lor.rhs.i9:                                       ; preds = %lor.lhs.false3.i6
  %d_assertionOrder.i.i10 = getelementptr inbounds i8, ptr %6, i64 104
  %12 = load i64, ptr %d_assertionOrder.i.i10, align 8
  %cmp.i2.i11 = icmp eq i64 %12, -1
  br label %land.end

land.end:                                         ; preds = %lor.rhs.i9, %lor.lhs.false3.i6, %lor.lhs.false.i3, %land.rhs, %entry, %lor.lhs.false.i, %lor.lhs.false3.i
  %13 = phi i1 [ false, %lor.lhs.false3.i ], [ false, %lor.lhs.false.i ], [ false, %entry ], [ false, %lor.lhs.false3.i6 ], [ false, %lor.lhs.false.i3 ], [ false, %land.rhs ], [ %cmp.i2.i11, %lor.rhs.i9 ]
  ret i1 %13
}